target datalayout = "e-m:e-p270:32:32-p271:32:32-p272:64:64-i64:64-i128:128-f80:128-n8:16:32:64-S128"
target triple = "x86_64-pc-linux-gnu"

%class.btTransform = type { %class.btMatrix3x3, %class.btVector3 }
%class.btMatrix3x3 = type { [3 x %class.btVector3] }
%class.btVector3 = type { [4 x float] }
%class.btRaycastVehicle = type { %class.btActionInterface, %class.btAlignedObjectArray.2, %class.btAlignedObjectArray.2, %class.btAlignedObjectArray.4, %class.btAlignedObjectArray.4, i32, i32, ptr, float, float, float, ptr, i32, i32, i32, [4 x i8], %class.btAlignedObjectArray.6 }
%class.btActionInterface = type { ptr }
%class.btAlignedObjectArray.2 = type <{ [4 x i8], i32, i32, [4 x i8], ptr, i8, [7 x i8] }>
%class.btAlignedObjectArray.4 = type <{ [4 x i8], i32, i32, [4 x i8], ptr, i8, [7 x i8] }>
%class.btAlignedObjectArray.6 = type <{ [4 x i8], i32, i32, [4 x i8], ptr, i8, [7 x i8] }>
%struct.btWheelInfo = type { %"struct.btWheelInfo::RaycastInfo", %class.btTransform, %class.btVector3, %class.btVector3, %class.btVector3, float, float, float, float, float, float, float, float, float, float, float, float, float, float, i8, ptr, float, float, float, float }
%"struct.btWheelInfo::RaycastInfo" = type { %class.btVector3, %class.btVector3, float, %class.btVector3, %class.btVector3, %class.btVector3, i8, ptr }

; Function Attrs: inlinehint mustprogress nounwind uwtable
define linkonce_odr dso_local void @_ZN9btVector3C2ERKfS1_S1_(ptr noundef nonnull align 4 dereferenceable(16) %0, ptr noundef nonnull align 4 dereferenceable(4) %1, ptr noundef nonnull align 4 dereferenceable(4) %2, ptr noundef nonnull align 4 dereferenceable(4) %3) unnamed_addr #5 comdat align 2 {
  %5 = alloca ptr, align 8
  %6 = alloca ptr, align 8
  %7 = alloca ptr, align 8
  %8 = alloca ptr, align 8
  store ptr %0, ptr %5, align 8, !tbaa !15
  store ptr %1, ptr %6, align 8, !tbaa !17
  store ptr %2, ptr %7, align 8, !tbaa !17
  store ptr %3, ptr %8, align 8, !tbaa !17
  %9 = load ptr, ptr %5, align 8
  %10 = load ptr, ptr %6, align 8, !tbaa !17
  %11 = load float, ptr %10, align 4, !tbaa !13
  %12 = getelementptr inbounds nuw %class.btVector3, ptr %9, i32 0, i32 0
  %13 = getelementptr inbounds [4 x float], ptr %12, i64 0, i64 0
  store float %11, ptr %13, align 4, !tbaa !13
  %14 = load ptr, ptr %7, align 8, !tbaa !17
  %15 = load float, ptr %14, align 4, !tbaa !13
  %16 = getelementptr inbounds nuw %class.btVector3, ptr %9, i32 0, i32 0
  %17 = getelementptr inbounds [4 x float], ptr %16, i64 0, i64 1
  store float %15, ptr %17, align 4, !tbaa !13
  %18 = load ptr, ptr %8, align 8, !tbaa !17
  %19 = load float, ptr %18, align 4, !tbaa !13
  %20 = getelementptr inbounds nuw %class.btVector3, ptr %9, i32 0, i32 0
  %21 = getelementptr inbounds [4 x float], ptr %20, i64 0, i64 2
  store float %19, ptr %21, align 4, !tbaa !13
  %22 = getelementptr inbounds nuw %class.btVector3, ptr %9, i32 0, i32 0
  %23 = getelementptr inbounds [4 x float], ptr %22, i64 0, i64 3
  store float 0.000000e+00, ptr %23, align 4, !tbaa !13
  ret void
}

; Function Attrs: inlinehint mustprogress uwtable
define linkonce_odr dso_local { <2 x float>, <2 x float> } @_ZngRK9btVector3(ptr noundef nonnull align 4 dereferenceable(16) %0) #8 comdat {
  %2 = alloca %class.btVector3, align 4
  %3 = alloca ptr, align 8
  %4 = alloca float, align 4
  %5 = alloca float, align 4
  %6 = alloca float, align 4
  store ptr %0, ptr %3, align 8, !tbaa !15
  call void @llvm.lifetime.start.p0(i64 4, ptr %4) #3
  %7 = load ptr, ptr %3, align 8, !tbaa !15
  %8 = getelementptr inbounds nuw %class.btVector3, ptr %7, i32 0, i32 0
  %9 = getelementptr inbounds [4 x float], ptr %8, i64 0, i64 0
  %10 = load float, ptr %9, align 4, !tbaa !13
  %11 = fneg float %10
  store float %11, ptr %4, align 4, !tbaa !13
  call void @llvm.lifetime.start.p0(i64 4, ptr %5) #3
  %12 = load ptr, ptr %3, align 8, !tbaa !15
  %13 = getelementptr inbounds nuw %class.btVector3, ptr %12, i32 0, i32 0
  %14 = getelementptr inbounds [4 x float], ptr %13, i64 0, i64 1
  %15 = load float, ptr %14, align 4, !tbaa !13
  %16 = fneg float %15
  store float %16, ptr %5, align 4, !tbaa !13
  call void @llvm.lifetime.start.p0(i64 4, ptr %6) #3
  %17 = load ptr, ptr %3, align 8, !tbaa !15
  %18 = getelementptr inbounds nuw %class.btVector3, ptr %17, i32 0, i32 0
  %19 = getelementptr inbounds [4 x float], ptr %18, i64 0, i64 2
  %20 = load float, ptr %19, align 4, !tbaa !13
  %21 = fneg float %20
  store float %21, ptr %6, align 4, !tbaa !13
  call void @_ZN9btVector3C2ERKfS1_S1_(ptr noundef nonnull align 4 dereferenceable(16) %2, ptr noundef nonnull align 4 dereferenceable(4) %4, ptr noundef nonnull align 4 dereferenceable(4) %5, ptr noundef nonnull align 4 dereferenceable(4) %6)
  call void @llvm.lifetime.end.p0(i64 4, ptr %6) #3
  call void @llvm.lifetime.end.p0(i64 4, ptr %5) #3
  call void @llvm.lifetime.end.p0(i64 4, ptr %4) #3
  %22 = getelementptr inbounds nuw %class.btVector3, ptr %2, i32 0, i32 0
  %23 = load { <2 x float>, <2 x float> }, ptr %22, align 4
  ret { <2 x float>, <2 x float> } %23
}

; Function Attrs: inlinehint mustprogress nounwind uwtable
define linkonce_odr dso_local noundef nonnull align 8 dereferenceable(296) ptr @_ZN20btAlignedObjectArrayI11btWheelInfoEixEi(ptr noundef nonnull align 8 dereferenceable(25) %0, i32 noundef %1) #5 comdat align 2 {
  %3 = alloca ptr, align 8
  %4 = alloca i32, align 4
  store ptr %0, ptr %3, align 8, !tbaa !51
  store i32 %1, ptr %4, align 4, !tbaa !9
  %5 = load ptr, ptr %3, align 8
  %6 = getelementptr inbounds nuw %class.btAlignedObjectArray.6, ptr %5, i32 0, i32 4
  %7 = load ptr, ptr %6, align 8, !tbaa !80
  %8 = load i32, ptr %4, align 4, !tbaa !9
  %9 = sext i32 %8 to i64
  %10 = getelementptr inbounds %struct.btWheelInfo, ptr %7, i64 %9
  ret ptr %10
}

; Function Attrs: inlinehint mustprogress nounwind uwtable
define linkonce_odr dso_local noundef i32 @_ZNK20btAlignedObjectArrayI11btWheelInfoE4sizeEv(ptr noundef nonnull align 8 dereferenceable(25) %0) #5 comdat align 2 {
  %2 = alloca ptr, align 8
  store ptr %0, ptr %2, align 8, !tbaa !51
  %3 = load ptr, ptr %2, align 8
  %4 = getelementptr inbounds nuw %class.btAlignedObjectArray.6, ptr %3, i32 0, i32 1
  %5 = load i32, ptr %4, align 4, !tbaa !81
  ret i32 %5
}

; Function Attrs: mustprogress uwtable
define dso_local void @_ZN16btRaycastVehicle15resetSuspensionEv(ptr noundef nonnull align 8 dereferenceable(224) %0) #10 align 2 {
  %2 = alloca ptr, align 8
  %3 = alloca i32, align 4
  %4 = alloca ptr, align 8
  %5 = alloca %class.btVector3, align 4
  store ptr %0, ptr %2, align 8, !tbaa !23
  %6 = load ptr, ptr %2, align 8
  call void @llvm.lifetime.start.p0(i64 4, ptr %3) #3
  store i32 0, ptr %3, align 4, !tbaa !9
  br label %7

7:                                                ; preds = %37, %1
  %8 = load i32, ptr %3, align 4, !tbaa !9
  %9 = getelementptr inbounds nuw %class.btRaycastVehicle, ptr %6, i32 0, i32 16
  %10 = call noundef i32 @_ZNK20btAlignedObjectArrayI11btWheelInfoE4sizeEv(ptr noundef nonnull align 8 dereferenceable(25) %9)
  %11 = icmp slt i32 %8, %10
  br i1 %11, label %12, label %40

12:                                               ; preds = %7
  call void @llvm.lifetime.start.p0(i64 8, ptr %4) #3
  %13 = getelementptr inbounds nuw %class.btRaycastVehicle, ptr %6, i32 0, i32 16
  %14 = load i32, ptr %3, align 4, !tbaa !9
  %15 = call noundef nonnull align 8 dereferenceable(296) ptr @_ZN20btAlignedObjectArrayI11btWheelInfoEixEi(ptr noundef nonnull align 8 dereferenceable(25) %13, i32 noundef %14)
  store ptr %15, ptr %4, align 8, !tbaa !77
  %16 = load ptr, ptr %4, align 8, !tbaa !77
  %17 = call noundef float @_ZNK11btWheelInfo23getSuspensionRestLengthEv(ptr noundef nonnull align 8 dereferenceable(296) %16)
  %18 = load ptr, ptr %4, align 8, !tbaa !77
  %19 = getelementptr inbounds nuw %struct.btWheelInfo, ptr %18, i32 0, i32 0
  %20 = getelementptr inbounds nuw %"struct.btWheelInfo::RaycastInfo", ptr %19, i32 0, i32 2
  store float %17, ptr %20, align 8, !tbaa !108
  %21 = load ptr, ptr %4, align 8, !tbaa !77
  %22 = getelementptr inbounds nuw %struct.btWheelInfo, ptr %21, i32 0, i32 22
  store float 0.000000e+00, ptr %22, align 4, !tbaa !109
  call void @llvm.lifetime.start.p0(i64 16, ptr %5) #3
  %23 = load ptr, ptr %4, align 8, !tbaa !77
  %24 = getelementptr inbounds nuw %struct.btWheelInfo, ptr %23, i32 0, i32 0
  %25 = getelementptr inbounds nuw %"struct.btWheelInfo::RaycastInfo", ptr %24, i32 0, i32 4
  %26 = call { <2 x float>, <2 x float> } @_ZngRK9btVector3(ptr noundef nonnull align 4 dereferenceable(16) %25)
  %27 = getelementptr inbounds nuw %class.btVector3, ptr %5, i32 0, i32 0
  %28 = getelementptr inbounds nuw { <2 x float>, <2 x float> }, ptr %27, i32 0, i32 0
  %29 = extractvalue { <2 x float>, <2 x float> } %26, 0
  store <2 x float> %29, ptr %28, align 4
  %30 = getelementptr inbounds nuw { <2 x float>, <2 x float> }, ptr %27, i32 0, i32 1
  %31 = extractvalue { <2 x float>, <2 x float> } %26, 1
  store <2 x float> %31, ptr %30, align 4
  %32 = load ptr, ptr %4, align 8, !tbaa !77
  %33 = getelementptr inbounds nuw %struct.btWheelInfo, ptr %32, i32 0, i32 0
  %34 = getelementptr inbounds nuw %"struct.btWheelInfo::RaycastInfo", ptr %33, i32 0, i32 0
  call void @llvm.memcpy.p0.p0.i64(ptr align 8 %34, ptr align 4 %5, i64 16, i1 false), !tbaa.struct !56
  call void @llvm.lifetime.end.p0(i64 16, ptr %5) #3
  %35 = load ptr, ptr %4, align 8, !tbaa !77
  %36 = getelementptr inbounds nuw %struct.btWheelInfo, ptr %35, i32 0, i32 21
  store float 1.000000e+00, ptr %36, align 8, !tbaa !110
  call void @llvm.lifetime.end.p0(i64 8, ptr %4) #3
  br label %37

37:                                               ; preds = %12
  %38 = load i32, ptr %3, align 4, !tbaa !9
  %39 = add nsw i32 %38, 1
  store i32 %39, ptr %3, align 4, !tbaa !9
  br label %7, !llvm.loop !111

40:                                               ; preds = %7
  call void @llvm.lifetime.end.p0(i64 4, ptr %3) #3
  ret void
}