; Function Attrs: mustprogress uwtable
define dso_local void @_ZN16btRaycastVehicle15resetSuspensionEv(ptr noundef nonnull readonly align 8 captures(none) dereferenceable(224) %0) local_unnamed_addr #7 align 2 {
  %2 = getelementptr inbounds nuw i8, ptr %0, i64 196
  %3 = load i32, ptr %2, align 4, !tbaa !47
  %4 = icmp sgt i32 %3, 0
  br i1 %4, label %.lr.ph, label %._crit_edge

.lr.ph:                                           ; preds = %1
  %5 = getelementptr inbounds nuw i8, ptr %0, i64 208
  br label %6

6:                                                ; preds = %.lr.ph, %6
  %indvars.iv = phi i64 [ 0, %.lr.ph ], [ %indvars.iv.next, %6 ]
  %7 = load ptr, ptr %5, align 8, !tbaa !46
  %8 = getelementptr inbounds nuw %struct.btWheelInfo, ptr %7, i64 %indvars.iv
  %9 = tail call noundef float @_ZNK11btWheelInfo23getSuspensionRestLengthEv(ptr noundef nonnull align 8 dereferenceable(296) %8)
  %10 = getelementptr inbounds nuw i8, ptr %8, i64 32
  store float %9, ptr %10, align 8, !tbaa !91
  %11 = getelementptr inbounds nuw i8, ptr %8, i64 284
  store float 0.000000e+00, ptr %11, align 4, !tbaa !92
  %12 = getelementptr inbounds nuw i8, ptr %8, i64 52
  %13 = load float, ptr %12, align 4, !tbaa !64
  %14 = fneg float %13
  %15 = getelementptr inbounds nuw i8, ptr %8, i64 56
  %16 = load float, ptr %15, align 4, !tbaa !64
  %17 = fneg float %16
  %18 = getelementptr inbounds nuw i8, ptr %8, i64 60
  %19 = load float, ptr %18, align 4, !tbaa !64
  %20 = fneg float %19
  %.sroa.0.0.vec.insert.i = insertelement <2 x float> poison, float %14, i64 0
  %.sroa.0.4.vec.insert.i = insertelement <2 x float> %.sroa.0.0.vec.insert.i, float %17, i64 1
  %.sroa.3.12.vec.insert.i = insertelement <2 x float> <float poison, float 0.000000e+00>, float %20, i64 0
  store <2 x float> %.sroa.0.4.vec.insert.i, ptr %8, align 8
  %.sroa.4.0..sroa_idx = getelementptr inbounds nuw i8, ptr %8, i64 8
  store <2 x float> %.sroa.3.12.vec.insert.i, ptr %.sroa.4.0..sroa_idx, align 8, !tbaa !63
  %21 = getelementptr inbounds nuw i8, ptr %8, i64 280
  store float 1.000000e+00, ptr %21, align 8, !tbaa !93
  %indvars.iv.next = add nuw nsw i64 %indvars.iv, 1
  %22 = load i32, ptr %2, align 4, !tbaa !47
  %23 = sext i32 %22 to i64
  %24 = icmp slt i64 %indvars.iv.next, %23
  br i1 %24, label %6, label %._crit_edge, !llvm.loop !94

._crit_edge:                                      ; preds = %6, %1
  ret void
}